target datalayout = "e-m:e-p270:32:32-p271:32:32-p272:64:64-i64:64-i128:128-f80:128-n8:16:32:64-S128"
target triple = "x86_64-pc-linux-gnu"

; Function Attrs: mustprogress noinline nounwind uwtable
define internal noundef ptr @_ZL15fallbackNewImplILb1EEPvm(i64 noundef %0) #24 personality ptr @__gxx_personality_v0 {
  %2 = alloca ptr, align 8
  %3 = alloca i64, align 8
  %4 = alloca ptr, align 8
  %5 = alloca i32, align 4
  store i64 %0, ptr %3, align 8, !tbaa !4
  call void @llvm.lifetime.start.p0(i64 8, ptr %4) #26
  %6 = load i64, ptr %3, align 8, !tbaa !4
  %7 = invoke ptr @je_malloc_default(i64 noundef %6)
          to label %8 unwind label %24

8:                                                ; preds = %1
  store ptr %7, ptr %4, align 8, !tbaa !8
  %9 = load ptr, ptr %4, align 8, !tbaa !8
  %10 = icmp ne ptr %9, null
  %11 = xor i1 %10, true
  %12 = xor i1 %11, true
  %13 = zext i1 %12 to i64
  %14 = call i64 @llvm.expect.i64(i64 %13, i64 1)
  %15 = icmp ne i64 %14, 0
  br i1 %15, label %16, label %18

16:                                               ; preds = %8
  %17 = load ptr, ptr %4, align 8, !tbaa !8
  store ptr %17, ptr %2, align 8
  store i32 1, ptr %5, align 4
  br label %22

18:                                               ; preds = %8
  %19 = load i64, ptr %3, align 8, !tbaa !4
  %20 = invoke noundef ptr @_ZL9handleOOMmb(i64 noundef %19, i1 noundef zeroext true)
          to label %21 unwind label %24

21:                                               ; preds = %18
  store ptr %20, ptr %2, align 8
  store i32 1, ptr %5, align 4
  br label %22

22:                                               ; preds = %21, %16
  call void @llvm.lifetime.end.p0(i64 8, ptr %4) #26
  %23 = load ptr, ptr %2, align 8
  ret ptr %23

24:                                               ; preds = %18, %1
  %25 = landingpad { ptr, i32 }
          catch ptr null
  %26 = extractvalue { ptr, i32 } %25, 0
  call void @__clang_call_terminate(ptr %26) #27
  unreachable
}