; Function Attrs: mustprogress noinline nounwind uwtable
define internal fastcc noundef ptr @_ZL15fallbackNewImplILb1EEPvm(i64 noundef %0) unnamed_addr #13 personality ptr @__gxx_personality_v0 {
  %2 = invoke ptr @je_malloc_default(i64 noundef %0)
          to label %3 unwind label %7

3:                                                ; preds = %1
  %.not = icmp eq ptr %2, null
  br i1 %.not, label %4, label %6, !prof !4

4:                                                ; preds = %3
  %5 = invoke fastcc noundef ptr @_ZL9handleOOMmb(i64 noundef %0, i1 noundef zeroext true)
          to label %6 unwind label %7

6:                                                ; preds = %4, %3
  %.0 = phi ptr [ %2, %3 ], [ %5, %4 ]
  ret ptr %.0

7:                                                ; preds = %4, %1
  %8 = landingpad { ptr, i32 }
          catch ptr null
  %9 = extractvalue { ptr, i32 } %8, 0
  tail call void @__clang_call_terminate(ptr %9) #17
  unreachable
}